
testit.riscv:     file format elf32-littleriscv


Disassembly of section .text:

00000000 <_start>:
   0:	00000093          	li	ra,0
   4:	00000113          	li	sp,0
   8:	00000193          	li	gp,0
   c:	00000213          	li	tp,0
  10:	00000293          	li	t0,0
  14:	00000313          	li	t1,0
  18:	00000393          	li	t2,0
  1c:	00000413          	li	s0,0
  20:	00000493          	li	s1,0
  24:	00000513          	li	a0,0
  28:	00000593          	li	a1,0
  2c:	00000613          	li	a2,0
  30:	00000693          	li	a3,0
  34:	00000713          	li	a4,0
  38:	00000793          	li	a5,0
  3c:	00000813          	li	a6,0
  40:	00000893          	li	a7,0
  44:	00000913          	li	s2,0
  48:	00000993          	li	s3,0
  4c:	00000a13          	li	s4,0
  50:	00000a93          	li	s5,0
  54:	00000b13          	li	s6,0
  58:	00000b93          	li	s7,0
  5c:	00000c13          	li	s8,0
  60:	00000c93          	li	s9,0
  64:	00000d13          	li	s10,0
  68:	00000d93          	li	s11,0
  6c:	00000e13          	li	t3,0
  70:	00000e93          	li	t4,0
  74:	00000f13          	li	t5,0
  78:	00000f93          	li	t6,0
  7c:	00003117          	auipc	sp,0x3
  80:	dfc10113          	addi	sp,sp,-516 # 2e78 <STACK>
  84:	068000ef          	jal	ra,ec <main>
  88:	1d90006f          	j	a60 <end>

0000008c <__sync_fetch_and_add_4>:
  8c:	ff010113          	addi	sp,sp,-16
  90:	00812623          	sw	s0,12(sp)
  94:	01010413          	addi	s0,sp,16
  98:	00000013          	nop
  9c:	00078513          	mv	a0,a5
  a0:	00c12403          	lw	s0,12(sp)
  a4:	01010113          	addi	sp,sp,16
  a8:	00008067          	ret

000000ac <malloc>:
  ac:	ff010113          	addi	sp,sp,-16
  b0:	00812623          	sw	s0,12(sp)
  b4:	01010413          	addi	s0,sp,16
  b8:	00000013          	nop
  bc:	00078513          	mv	a0,a5
  c0:	00c12403          	lw	s0,12(sp)
  c4:	01010113          	addi	sp,sp,16
  c8:	00008067          	ret

000000cc <abort>:
  cc:	ff010113          	addi	sp,sp,-16
  d0:	00812623          	sw	s0,12(sp)
  d4:	01010413          	addi	s0,sp,16
  d8:	00000013          	nop
  dc:	00078513          	mv	a0,a5
  e0:	00c12403          	lw	s0,12(sp)
  e4:	01010113          	addi	sp,sp,16
  e8:	00008067          	ret

000000ec <main>:
  ec:	fd010113          	addi	sp,sp,-48
  f0:	02812623          	sw	s0,44(sp)
  f4:	03010413          	addi	s0,sp,48
  f8:	fca42e23          	sw	a0,-36(s0)
  fc:	fcb42c23          	sw	a1,-40(s0)
 100:	00001797          	auipc	a5,0x1
 104:	c5878793          	addi	a5,a5,-936 # d58 <arr>
 108:	fef42623          	sw	a5,-20(s0)
 10c:	fec42783          	lw	a5,-20(s0)
 110:	00478793          	addi	a5,a5,4
 114:	01600713          	li	a4,22
 118:	00e7a023          	sw	a4,0(a5)
 11c:	0012d7b7          	lui	a5,0x12d
 120:	69278793          	addi	a5,a5,1682 # 12d692 <sense.2917+0x12a806>
 124:	00078513          	mv	a0,a5
 128:	02c12403          	lw	s0,44(sp)
 12c:	03010113          	addi	sp,sp,48
 130:	00008067          	ret

00000134 <verify>:
 134:	fc010113          	addi	sp,sp,-64
 138:	02812e23          	sw	s0,60(sp)
 13c:	04010413          	addi	s0,sp,64
 140:	fca42623          	sw	a0,-52(s0)
 144:	fcb42423          	sw	a1,-56(s0)
 148:	fcc42223          	sw	a2,-60(s0)
 14c:	fe042623          	sw	zero,-20(s0)
 150:	0a80006f          	j	1f8 <verify+0xc4>
 154:	fec42783          	lw	a5,-20(s0)
 158:	00279793          	slli	a5,a5,0x2
 15c:	fc842703          	lw	a4,-56(s0)
 160:	00f707b3          	add	a5,a4,a5
 164:	0007a783          	lw	a5,0(a5)
 168:	fef42423          	sw	a5,-24(s0)
 16c:	fec42783          	lw	a5,-20(s0)
 170:	00178793          	addi	a5,a5,1
 174:	00279793          	slli	a5,a5,0x2
 178:	fc842703          	lw	a4,-56(s0)
 17c:	00f707b3          	add	a5,a4,a5
 180:	0007a783          	lw	a5,0(a5)
 184:	fef42223          	sw	a5,-28(s0)
 188:	fec42783          	lw	a5,-20(s0)
 18c:	00279793          	slli	a5,a5,0x2
 190:	fc442703          	lw	a4,-60(s0)
 194:	00f707b3          	add	a5,a4,a5
 198:	0007a783          	lw	a5,0(a5)
 19c:	fef42023          	sw	a5,-32(s0)
 1a0:	fec42783          	lw	a5,-20(s0)
 1a4:	00178793          	addi	a5,a5,1
 1a8:	00279793          	slli	a5,a5,0x2
 1ac:	fc442703          	lw	a4,-60(s0)
 1b0:	00f707b3          	add	a5,a4,a5
 1b4:	0007a783          	lw	a5,0(a5)
 1b8:	fcf42e23          	sw	a5,-36(s0)
 1bc:	fe842703          	lw	a4,-24(s0)
 1c0:	fe042783          	lw	a5,-32(s0)
 1c4:	00f70863          	beq	a4,a5,1d4 <verify+0xa0>
 1c8:	fec42783          	lw	a5,-20(s0)
 1cc:	00178793          	addi	a5,a5,1
 1d0:	0a40006f          	j	274 <verify+0x140>
 1d4:	fe442703          	lw	a4,-28(s0)
 1d8:	fdc42783          	lw	a5,-36(s0)
 1dc:	00f70863          	beq	a4,a5,1ec <verify+0xb8>
 1e0:	fec42783          	lw	a5,-20(s0)
 1e4:	00278793          	addi	a5,a5,2
 1e8:	08c0006f          	j	274 <verify+0x140>
 1ec:	fec42783          	lw	a5,-20(s0)
 1f0:	00278793          	addi	a5,a5,2
 1f4:	fef42623          	sw	a5,-20(s0)
 1f8:	fcc42783          	lw	a5,-52(s0)
 1fc:	01f7d713          	srli	a4,a5,0x1f
 200:	00f707b3          	add	a5,a4,a5
 204:	4017d793          	srai	a5,a5,0x1
 208:	00179793          	slli	a5,a5,0x1
 20c:	fec42703          	lw	a4,-20(s0)
 210:	f4f742e3          	blt	a4,a5,154 <verify+0x20>
 214:	fcc42783          	lw	a5,-52(s0)
 218:	0017f793          	andi	a5,a5,1
 21c:	04078863          	beqz	a5,26c <verify+0x138>
 220:	fcc42703          	lw	a4,-52(s0)
 224:	400007b7          	lui	a5,0x40000
 228:	fff78793          	addi	a5,a5,-1 # 3fffffff <sense.2917+0x3fffd173>
 22c:	00f707b3          	add	a5,a4,a5
 230:	00279793          	slli	a5,a5,0x2
 234:	fc842703          	lw	a4,-56(s0)
 238:	00f707b3          	add	a5,a4,a5
 23c:	0007a703          	lw	a4,0(a5)
 240:	fcc42683          	lw	a3,-52(s0)
 244:	400007b7          	lui	a5,0x40000
 248:	fff78793          	addi	a5,a5,-1 # 3fffffff <sense.2917+0x3fffd173>
 24c:	00f687b3          	add	a5,a3,a5
 250:	00279793          	slli	a5,a5,0x2
 254:	fc442683          	lw	a3,-60(s0)
 258:	00f687b3          	add	a5,a3,a5
 25c:	0007a783          	lw	a5,0(a5)
 260:	00f70663          	beq	a4,a5,26c <verify+0x138>
 264:	fcc42783          	lw	a5,-52(s0)
 268:	00c0006f          	j	274 <verify+0x140>
 26c:	00bc67b7          	lui	a5,0xbc6
 270:	14e78793          	addi	a5,a5,334 # bc614e <sense.2917+0xbc32c2>
 274:	00078513          	mv	a0,a5
 278:	03c12403          	lw	s0,60(sp)
 27c:	04010113          	addi	sp,sp,64
 280:	00008067          	ret

00000284 <verifyDouble>:
 284:	fb010113          	addi	sp,sp,-80
 288:	04112623          	sw	ra,76(sp)
 28c:	04812423          	sw	s0,72(sp)
 290:	04912223          	sw	s1,68(sp)
 294:	05010413          	addi	s0,sp,80
 298:	faa42e23          	sw	a0,-68(s0)
 29c:	fab42c23          	sw	a1,-72(s0)
 2a0:	fac42a23          	sw	a2,-76(s0)
 2a4:	fe042623          	sw	zero,-20(s0)
 2a8:	1140006f          	j	3bc <verifyDouble+0x138>
 2ac:	fec42783          	lw	a5,-20(s0)
 2b0:	00379793          	slli	a5,a5,0x3
 2b4:	fb842703          	lw	a4,-72(s0)
 2b8:	00f707b3          	add	a5,a4,a5
 2bc:	0047a803          	lw	a6,4(a5)
 2c0:	0007a783          	lw	a5,0(a5)
 2c4:	fef42023          	sw	a5,-32(s0)
 2c8:	ff042223          	sw	a6,-28(s0)
 2cc:	fec42783          	lw	a5,-20(s0)
 2d0:	00178793          	addi	a5,a5,1
 2d4:	00379793          	slli	a5,a5,0x3
 2d8:	fb842703          	lw	a4,-72(s0)
 2dc:	00f707b3          	add	a5,a4,a5
 2e0:	0047a803          	lw	a6,4(a5)
 2e4:	0007a783          	lw	a5,0(a5)
 2e8:	fcf42c23          	sw	a5,-40(s0)
 2ec:	fd042e23          	sw	a6,-36(s0)
 2f0:	fec42783          	lw	a5,-20(s0)
 2f4:	00379793          	slli	a5,a5,0x3
 2f8:	fb442703          	lw	a4,-76(s0)
 2fc:	00f707b3          	add	a5,a4,a5
 300:	0047a803          	lw	a6,4(a5)
 304:	0007a783          	lw	a5,0(a5)
 308:	fcf42823          	sw	a5,-48(s0)
 30c:	fd042a23          	sw	a6,-44(s0)
 310:	fec42783          	lw	a5,-20(s0)
 314:	00178793          	addi	a5,a5,1
 318:	00379793          	slli	a5,a5,0x3
 31c:	fb442703          	lw	a4,-76(s0)
 320:	00f707b3          	add	a5,a4,a5
 324:	0047a803          	lw	a6,4(a5)
 328:	0007a783          	lw	a5,0(a5)
 32c:	fcf42423          	sw	a5,-56(s0)
 330:	fd042623          	sw	a6,-52(s0)
 334:	00100493          	li	s1,1
 338:	fd042603          	lw	a2,-48(s0)
 33c:	fd442683          	lw	a3,-44(s0)
 340:	fe042503          	lw	a0,-32(s0)
 344:	fe442583          	lw	a1,-28(s0)
 348:	734000ef          	jal	ra,a7c <__eqdf2>
 34c:	00050793          	mv	a5,a0
 350:	00078463          	beqz	a5,358 <verifyDouble+0xd4>
 354:	00000493          	li	s1,0
 358:	0ff4f793          	andi	a5,s1,255
 35c:	fcf42223          	sw	a5,-60(s0)
 360:	00100493          	li	s1,1
 364:	fc842603          	lw	a2,-56(s0)
 368:	fcc42683          	lw	a3,-52(s0)
 36c:	fd842503          	lw	a0,-40(s0)
 370:	fdc42583          	lw	a1,-36(s0)
 374:	708000ef          	jal	ra,a7c <__eqdf2>
 378:	00050793          	mv	a5,a0
 37c:	00078463          	beqz	a5,384 <verifyDouble+0x100>
 380:	00000493          	li	s1,0
 384:	0ff4f793          	andi	a5,s1,255
 388:	fcf42023          	sw	a5,-64(s0)
 38c:	fc442703          	lw	a4,-60(s0)
 390:	fc042783          	lw	a5,-64(s0)
 394:	00f777b3          	and	a5,a4,a5
 398:	00079c63          	bnez	a5,3b0 <verifyDouble+0x12c>
 39c:	fec42783          	lw	a5,-20(s0)
 3a0:	00178713          	addi	a4,a5,1
 3a4:	fc442783          	lw	a5,-60(s0)
 3a8:	00f707b3          	add	a5,a4,a5
 3ac:	0a80006f          	j	454 <verifyDouble+0x1d0>
 3b0:	fec42783          	lw	a5,-20(s0)
 3b4:	00278793          	addi	a5,a5,2
 3b8:	fef42623          	sw	a5,-20(s0)
 3bc:	fbc42783          	lw	a5,-68(s0)
 3c0:	01f7d713          	srli	a4,a5,0x1f
 3c4:	00f707b3          	add	a5,a4,a5
 3c8:	4017d793          	srai	a5,a5,0x1
 3cc:	00179793          	slli	a5,a5,0x1
 3d0:	fec42703          	lw	a4,-20(s0)
 3d4:	ecf74ce3          	blt	a4,a5,2ac <verifyDouble+0x28>
 3d8:	fbc42783          	lw	a5,-68(s0)
 3dc:	0017f793          	andi	a5,a5,1
 3e0:	06078863          	beqz	a5,450 <verifyDouble+0x1cc>
 3e4:	fbc42703          	lw	a4,-68(s0)
 3e8:	200007b7          	lui	a5,0x20000
 3ec:	fff78793          	addi	a5,a5,-1 # 1fffffff <sense.2917+0x1fffd173>
 3f0:	00f707b3          	add	a5,a4,a5
 3f4:	00379793          	slli	a5,a5,0x3
 3f8:	fb842703          	lw	a4,-72(s0)
 3fc:	00f707b3          	add	a5,a4,a5
 400:	0047a803          	lw	a6,4(a5)
 404:	0007a783          	lw	a5,0(a5)
 408:	fbc42683          	lw	a3,-68(s0)
 40c:	20000737          	lui	a4,0x20000
 410:	fff70713          	addi	a4,a4,-1 # 1fffffff <sense.2917+0x1fffd173>
 414:	00e68733          	add	a4,a3,a4
 418:	00371713          	slli	a4,a4,0x3
 41c:	fb442683          	lw	a3,-76(s0)
 420:	00e68733          	add	a4,a3,a4
 424:	00072683          	lw	a3,0(a4)
 428:	00472703          	lw	a4,4(a4)
 42c:	00068613          	mv	a2,a3
 430:	00070693          	mv	a3,a4
 434:	00078513          	mv	a0,a5
 438:	00080593          	mv	a1,a6
 43c:	640000ef          	jal	ra,a7c <__eqdf2>
 440:	00050793          	mv	a5,a0
 444:	00078663          	beqz	a5,450 <verifyDouble+0x1cc>
 448:	fbc42783          	lw	a5,-68(s0)
 44c:	0080006f          	j	454 <verifyDouble+0x1d0>
 450:	00000793          	li	a5,0
 454:	00078513          	mv	a0,a5
 458:	04c12083          	lw	ra,76(sp)
 45c:	04812403          	lw	s0,72(sp)
 460:	04412483          	lw	s1,68(sp)
 464:	05010113          	addi	sp,sp,80
 468:	00008067          	ret

0000046c <barrier>:
 46c:	fe010113          	addi	sp,sp,-32
 470:	00112e23          	sw	ra,28(sp)
 474:	00812c23          	sw	s0,24(sp)
 478:	00912a23          	sw	s1,20(sp)
 47c:	02010413          	addi	s0,sp,32
 480:	fea42623          	sw	a0,-20(s0)
 484:	0ff0000f          	fence
 488:	00001517          	auipc	a0,0x1
 48c:	8e050513          	addi	a0,a0,-1824 # d68 <__emutls_v.threadsense.2919>
 490:	678000ef          	jal	ra,b08 <__emutls_get_address>
 494:	00050793          	mv	a5,a0
 498:	0007a703          	lw	a4,0(a5)
 49c:	00173713          	seqz	a4,a4
 4a0:	0ff77713          	andi	a4,a4,255
 4a4:	00e7a023          	sw	a4,0(a5)
 4a8:	00100593          	li	a1,1
 4ac:	00003517          	auipc	a0,0x3
 4b0:	9dc50513          	addi	a0,a0,-1572 # 2e88 <count.2918>
 4b4:	bd9ff0ef          	jal	ra,8c <__sync_fetch_and_add_4>
 4b8:	00050793          	mv	a5,a0
 4bc:	00078713          	mv	a4,a5
 4c0:	fec42783          	lw	a5,-20(s0)
 4c4:	fff78793          	addi	a5,a5,-1
 4c8:	02f71a63          	bne	a4,a5,4fc <barrier+0x90>
 4cc:	00003797          	auipc	a5,0x3
 4d0:	9bc78793          	addi	a5,a5,-1604 # 2e88 <count.2918>
 4d4:	0007a023          	sw	zero,0(a5)
 4d8:	00001517          	auipc	a0,0x1
 4dc:	89050513          	addi	a0,a0,-1904 # d68 <__emutls_v.threadsense.2919>
 4e0:	628000ef          	jal	ra,b08 <__emutls_get_address>
 4e4:	00050793          	mv	a5,a0
 4e8:	0007a703          	lw	a4,0(a5)
 4ec:	00003797          	auipc	a5,0x3
 4f0:	9a078793          	addi	a5,a5,-1632 # 2e8c <sense.2917>
 4f4:	00e7a023          	sw	a4,0(a5)
 4f8:	02c0006f          	j	524 <barrier+0xb8>
 4fc:	00000013          	nop
 500:	00003797          	auipc	a5,0x3
 504:	98c78793          	addi	a5,a5,-1652 # 2e8c <sense.2917>
 508:	0007a483          	lw	s1,0(a5)
 50c:	00001517          	auipc	a0,0x1
 510:	85c50513          	addi	a0,a0,-1956 # d68 <__emutls_v.threadsense.2919>
 514:	5f4000ef          	jal	ra,b08 <__emutls_get_address>
 518:	00050793          	mv	a5,a0
 51c:	0007a783          	lw	a5,0(a5)
 520:	fef490e3          	bne	s1,a5,500 <barrier+0x94>
 524:	0ff0000f          	fence
 528:	00000013          	nop
 52c:	01c12083          	lw	ra,28(sp)
 530:	01812403          	lw	s0,24(sp)
 534:	01412483          	lw	s1,20(sp)
 538:	02010113          	addi	sp,sp,32
 53c:	00008067          	ret

00000540 <lfsr>:
 540:	fd010113          	addi	sp,sp,-48
 544:	02812623          	sw	s0,44(sp)
 548:	03010413          	addi	s0,sp,48
 54c:	fca42c23          	sw	a0,-40(s0)
 550:	fcb42e23          	sw	a1,-36(s0)
 554:	fdc42603          	lw	a2,-36(s0)
 558:	01f61613          	slli	a2,a2,0x1f
 55c:	fd842583          	lw	a1,-40(s0)
 560:	0015d693          	srli	a3,a1,0x1
 564:	00d666b3          	or	a3,a2,a3
 568:	fdc42603          	lw	a2,-36(s0)
 56c:	00165713          	srli	a4,a2,0x1
 570:	fd842603          	lw	a2,-40(s0)
 574:	00d64333          	xor	t1,a2,a3
 578:	fdc42603          	lw	a2,-36(s0)
 57c:	00e643b3          	xor	t2,a2,a4
 580:	00137713          	andi	a4,t1,1
 584:	fee42423          	sw	a4,-24(s0)
 588:	0003f713          	andi	a4,t2,0
 58c:	fee42623          	sw	a4,-20(s0)
 590:	fdc42703          	lw	a4,-36(s0)
 594:	01f71713          	slli	a4,a4,0x1f
 598:	fd842683          	lw	a3,-40(s0)
 59c:	0016d793          	srli	a5,a3,0x1
 5a0:	00f767b3          	or	a5,a4,a5
 5a4:	fdc42703          	lw	a4,-36(s0)
 5a8:	00175813          	srli	a6,a4,0x1
 5ac:	fe842703          	lw	a4,-24(s0)
 5b0:	01e71e93          	slli	t4,a4,0x1e
 5b4:	00000e13          	li	t3,0
 5b8:	01c7ef33          	or	t5,a5,t3
 5bc:	01d86fb3          	or	t6,a6,t4
 5c0:	000f0793          	mv	a5,t5
 5c4:	000f8813          	mv	a6,t6
 5c8:	00078513          	mv	a0,a5
 5cc:	00080593          	mv	a1,a6
 5d0:	02c12403          	lw	s0,44(sp)
 5d4:	03010113          	addi	sp,sp,48
 5d8:	00008067          	ret

000005dc <insn_len>:
 5dc:	fe010113          	addi	sp,sp,-32
 5e0:	00812e23          	sw	s0,28(sp)
 5e4:	02010413          	addi	s0,sp,32
 5e8:	fea42623          	sw	a0,-20(s0)
 5ec:	fec42783          	lw	a5,-20(s0)
 5f0:	0007d783          	lhu	a5,0(a5)
 5f4:	0037f793          	andi	a5,a5,3
 5f8:	00078663          	beqz	a5,604 <insn_len+0x28>
 5fc:	00400793          	li	a5,4
 600:	0080006f          	j	608 <insn_len+0x2c>
 604:	00200793          	li	a5,2
 608:	00078513          	mv	a0,a5
 60c:	01c12403          	lw	s0,28(sp)
 610:	02010113          	addi	sp,sp,32
 614:	00008067          	ret

00000618 <setStats>:
 618:	fe010113          	addi	sp,sp,-32
 61c:	00812e23          	sw	s0,28(sp)
 620:	02010413          	addi	s0,sp,32
 624:	fea42623          	sw	a0,-20(s0)
 628:	00000013          	nop
 62c:	01c12403          	lw	s0,28(sp)
 630:	02010113          	addi	sp,sp,32
 634:	00008067          	ret

00000638 <memcpy>:
 638:	fd010113          	addi	sp,sp,-48
 63c:	02812623          	sw	s0,44(sp)
 640:	03010413          	addi	s0,sp,48
 644:	fca42e23          	sw	a0,-36(s0)
 648:	fcb42c23          	sw	a1,-40(s0)
 64c:	fcc42a23          	sw	a2,-44(s0)
 650:	fdc42703          	lw	a4,-36(s0)
 654:	fd842783          	lw	a5,-40(s0)
 658:	00f76733          	or	a4,a4,a5
 65c:	fd442783          	lw	a5,-44(s0)
 660:	00f767b3          	or	a5,a4,a5
 664:	0037f793          	andi	a5,a5,3
 668:	04079863          	bnez	a5,6b8 <memcpy+0x80>
 66c:	fd842783          	lw	a5,-40(s0)
 670:	fef42623          	sw	a5,-20(s0)
 674:	fdc42783          	lw	a5,-36(s0)
 678:	fef42423          	sw	a5,-24(s0)
 67c:	0240006f          	j	6a0 <memcpy+0x68>
 680:	fec42703          	lw	a4,-20(s0)
 684:	00470793          	addi	a5,a4,4
 688:	fef42623          	sw	a5,-20(s0)
 68c:	fe842783          	lw	a5,-24(s0)
 690:	00478693          	addi	a3,a5,4
 694:	fed42423          	sw	a3,-24(s0)
 698:	00072703          	lw	a4,0(a4)
 69c:	00e7a023          	sw	a4,0(a5)
 6a0:	fdc42703          	lw	a4,-36(s0)
 6a4:	fd442783          	lw	a5,-44(s0)
 6a8:	00f707b3          	add	a5,a4,a5
 6ac:	fe842703          	lw	a4,-24(s0)
 6b0:	fcf768e3          	bltu	a4,a5,680 <memcpy+0x48>
 6b4:	04c0006f          	j	700 <memcpy+0xc8>
 6b8:	fd842783          	lw	a5,-40(s0)
 6bc:	fef42223          	sw	a5,-28(s0)
 6c0:	fdc42783          	lw	a5,-36(s0)
 6c4:	fef42023          	sw	a5,-32(s0)
 6c8:	0240006f          	j	6ec <memcpy+0xb4>
 6cc:	fe442703          	lw	a4,-28(s0)
 6d0:	00170793          	addi	a5,a4,1
 6d4:	fef42223          	sw	a5,-28(s0)
 6d8:	fe042783          	lw	a5,-32(s0)
 6dc:	00178693          	addi	a3,a5,1
 6e0:	fed42023          	sw	a3,-32(s0)
 6e4:	00074703          	lbu	a4,0(a4)
 6e8:	00e78023          	sb	a4,0(a5)
 6ec:	fdc42703          	lw	a4,-36(s0)
 6f0:	fd442783          	lw	a5,-44(s0)
 6f4:	00f707b3          	add	a5,a4,a5
 6f8:	fe042703          	lw	a4,-32(s0)
 6fc:	fcf768e3          	bltu	a4,a5,6cc <memcpy+0x94>
 700:	fdc42783          	lw	a5,-36(s0)
 704:	00078513          	mv	a0,a5
 708:	02c12403          	lw	s0,44(sp)
 70c:	03010113          	addi	sp,sp,48
 710:	00008067          	ret

00000714 <memset>:
 714:	fd010113          	addi	sp,sp,-48
 718:	02812623          	sw	s0,44(sp)
 71c:	03010413          	addi	s0,sp,48
 720:	fca42e23          	sw	a0,-36(s0)
 724:	fcb42c23          	sw	a1,-40(s0)
 728:	fcc42a23          	sw	a2,-44(s0)
 72c:	fdc42703          	lw	a4,-36(s0)
 730:	fd442783          	lw	a5,-44(s0)
 734:	00f767b3          	or	a5,a4,a5
 738:	0037f793          	andi	a5,a5,3
 73c:	06079863          	bnez	a5,7ac <memset+0x98>
 740:	fd842783          	lw	a5,-40(s0)
 744:	0ff7f793          	andi	a5,a5,255
 748:	fef42223          	sw	a5,-28(s0)
 74c:	fe442783          	lw	a5,-28(s0)
 750:	00879793          	slli	a5,a5,0x8
 754:	fe442703          	lw	a4,-28(s0)
 758:	00f767b3          	or	a5,a4,a5
 75c:	fef42223          	sw	a5,-28(s0)
 760:	fe442783          	lw	a5,-28(s0)
 764:	01079793          	slli	a5,a5,0x10
 768:	fe442703          	lw	a4,-28(s0)
 76c:	00f767b3          	or	a5,a4,a5
 770:	fef42223          	sw	a5,-28(s0)
 774:	fdc42783          	lw	a5,-36(s0)
 778:	fef42623          	sw	a5,-20(s0)
 77c:	0180006f          	j	794 <memset+0x80>
 780:	fec42783          	lw	a5,-20(s0)
 784:	00478713          	addi	a4,a5,4
 788:	fee42623          	sw	a4,-20(s0)
 78c:	fe442703          	lw	a4,-28(s0)
 790:	00e7a023          	sw	a4,0(a5)
 794:	fdc42703          	lw	a4,-36(s0)
 798:	fd442783          	lw	a5,-44(s0)
 79c:	00f707b3          	add	a5,a4,a5
 7a0:	fec42703          	lw	a4,-20(s0)
 7a4:	fcf76ee3          	bltu	a4,a5,780 <memset+0x6c>
 7a8:	03c0006f          	j	7e4 <memset+0xd0>
 7ac:	fdc42783          	lw	a5,-36(s0)
 7b0:	fef42423          	sw	a5,-24(s0)
 7b4:	01c0006f          	j	7d0 <memset+0xbc>
 7b8:	fe842783          	lw	a5,-24(s0)
 7bc:	00178713          	addi	a4,a5,1
 7c0:	fee42423          	sw	a4,-24(s0)
 7c4:	fd842703          	lw	a4,-40(s0)
 7c8:	0ff77713          	andi	a4,a4,255
 7cc:	00e78023          	sb	a4,0(a5)
 7d0:	fdc42703          	lw	a4,-36(s0)
 7d4:	fd442783          	lw	a5,-44(s0)
 7d8:	00f707b3          	add	a5,a4,a5
 7dc:	fe842703          	lw	a4,-24(s0)
 7e0:	fcf76ce3          	bltu	a4,a5,7b8 <memset+0xa4>
 7e4:	fdc42783          	lw	a5,-36(s0)
 7e8:	00078513          	mv	a0,a5
 7ec:	02c12403          	lw	s0,44(sp)
 7f0:	03010113          	addi	sp,sp,48
 7f4:	00008067          	ret

000007f8 <strlen>:
 7f8:	fd010113          	addi	sp,sp,-48
 7fc:	02812623          	sw	s0,44(sp)
 800:	03010413          	addi	s0,sp,48
 804:	fca42e23          	sw	a0,-36(s0)
 808:	fdc42783          	lw	a5,-36(s0)
 80c:	fef42623          	sw	a5,-20(s0)
 810:	0100006f          	j	820 <strlen+0x28>
 814:	fec42783          	lw	a5,-20(s0)
 818:	00178793          	addi	a5,a5,1
 81c:	fef42623          	sw	a5,-20(s0)
 820:	fec42783          	lw	a5,-20(s0)
 824:	0007c783          	lbu	a5,0(a5)
 828:	fe0796e3          	bnez	a5,814 <strlen+0x1c>
 82c:	fec42703          	lw	a4,-20(s0)
 830:	fdc42783          	lw	a5,-36(s0)
 834:	40f707b3          	sub	a5,a4,a5
 838:	00078513          	mv	a0,a5
 83c:	02c12403          	lw	s0,44(sp)
 840:	03010113          	addi	sp,sp,48
 844:	00008067          	ret

00000848 <strnlen>:
 848:	fd010113          	addi	sp,sp,-48
 84c:	02812623          	sw	s0,44(sp)
 850:	03010413          	addi	s0,sp,48
 854:	fca42e23          	sw	a0,-36(s0)
 858:	fcb42c23          	sw	a1,-40(s0)
 85c:	fdc42783          	lw	a5,-36(s0)
 860:	fef42623          	sw	a5,-20(s0)
 864:	0100006f          	j	874 <strnlen+0x2c>
 868:	fec42783          	lw	a5,-20(s0)
 86c:	00178793          	addi	a5,a5,1
 870:	fef42623          	sw	a5,-20(s0)
 874:	fd842783          	lw	a5,-40(s0)
 878:	fff78713          	addi	a4,a5,-1
 87c:	fce42c23          	sw	a4,-40(s0)
 880:	00078863          	beqz	a5,890 <strnlen+0x48>
 884:	fec42783          	lw	a5,-20(s0)
 888:	0007c783          	lbu	a5,0(a5)
 88c:	fc079ee3          	bnez	a5,868 <strnlen+0x20>
 890:	fec42703          	lw	a4,-20(s0)
 894:	fdc42783          	lw	a5,-36(s0)
 898:	40f707b3          	sub	a5,a4,a5
 89c:	00078513          	mv	a0,a5
 8a0:	02c12403          	lw	s0,44(sp)
 8a4:	03010113          	addi	sp,sp,48
 8a8:	00008067          	ret

000008ac <strcmp>:
 8ac:	fd010113          	addi	sp,sp,-48
 8b0:	02812623          	sw	s0,44(sp)
 8b4:	03010413          	addi	s0,sp,48
 8b8:	fca42e23          	sw	a0,-36(s0)
 8bc:	fcb42c23          	sw	a1,-40(s0)
 8c0:	fdc42783          	lw	a5,-36(s0)
 8c4:	00178713          	addi	a4,a5,1
 8c8:	fce42e23          	sw	a4,-36(s0)
 8cc:	0007c783          	lbu	a5,0(a5)
 8d0:	fef407a3          	sb	a5,-17(s0)
 8d4:	fd842783          	lw	a5,-40(s0)
 8d8:	00178713          	addi	a4,a5,1
 8dc:	fce42c23          	sw	a4,-40(s0)
 8e0:	0007c783          	lbu	a5,0(a5)
 8e4:	fef40723          	sb	a5,-18(s0)
 8e8:	fef44783          	lbu	a5,-17(s0)
 8ec:	00078863          	beqz	a5,8fc <strcmp+0x50>
 8f0:	fef44703          	lbu	a4,-17(s0)
 8f4:	fee44783          	lbu	a5,-18(s0)
 8f8:	fcf704e3          	beq	a4,a5,8c0 <strcmp+0x14>
 8fc:	fef44703          	lbu	a4,-17(s0)
 900:	fee44783          	lbu	a5,-18(s0)
 904:	40f707b3          	sub	a5,a4,a5
 908:	00078513          	mv	a0,a5
 90c:	02c12403          	lw	s0,44(sp)
 910:	03010113          	addi	sp,sp,48
 914:	00008067          	ret

00000918 <strcpy>:
 918:	fd010113          	addi	sp,sp,-48
 91c:	02812623          	sw	s0,44(sp)
 920:	03010413          	addi	s0,sp,48
 924:	fca42e23          	sw	a0,-36(s0)
 928:	fcb42c23          	sw	a1,-40(s0)
 92c:	fdc42783          	lw	a5,-36(s0)
 930:	fef42623          	sw	a5,-20(s0)
 934:	00000013          	nop
 938:	fd842703          	lw	a4,-40(s0)
 93c:	00170793          	addi	a5,a4,1
 940:	fcf42c23          	sw	a5,-40(s0)
 944:	fec42783          	lw	a5,-20(s0)
 948:	00178693          	addi	a3,a5,1
 94c:	fed42623          	sw	a3,-20(s0)
 950:	00074703          	lbu	a4,0(a4)
 954:	00e78023          	sb	a4,0(a5)
 958:	0007c783          	lbu	a5,0(a5)
 95c:	fc079ee3          	bnez	a5,938 <strcpy+0x20>
 960:	fdc42783          	lw	a5,-36(s0)
 964:	00078513          	mv	a0,a5
 968:	02c12403          	lw	s0,44(sp)
 96c:	03010113          	addi	sp,sp,48
 970:	00008067          	ret

00000974 <atol>:
 974:	fd010113          	addi	sp,sp,-48
 978:	02812623          	sw	s0,44(sp)
 97c:	03010413          	addi	s0,sp,48
 980:	fca42e23          	sw	a0,-36(s0)
 984:	fe042623          	sw	zero,-20(s0)
 988:	fe042423          	sw	zero,-24(s0)
 98c:	0100006f          	j	99c <atol+0x28>
 990:	fdc42783          	lw	a5,-36(s0)
 994:	00178793          	addi	a5,a5,1
 998:	fcf42e23          	sw	a5,-36(s0)
 99c:	fdc42783          	lw	a5,-36(s0)
 9a0:	0007c703          	lbu	a4,0(a5)
 9a4:	02000793          	li	a5,32
 9a8:	fef704e3          	beq	a4,a5,990 <atol+0x1c>
 9ac:	fdc42783          	lw	a5,-36(s0)
 9b0:	0007c703          	lbu	a4,0(a5)
 9b4:	02d00793          	li	a5,45
 9b8:	00f70a63          	beq	a4,a5,9cc <atol+0x58>
 9bc:	fdc42783          	lw	a5,-36(s0)
 9c0:	0007c703          	lbu	a4,0(a5)
 9c4:	02b00793          	li	a5,43
 9c8:	06f71263          	bne	a4,a5,a2c <atol+0xb8>
 9cc:	fdc42783          	lw	a5,-36(s0)
 9d0:	0007c783          	lbu	a5,0(a5)
 9d4:	fd378793          	addi	a5,a5,-45
 9d8:	0017b793          	seqz	a5,a5
 9dc:	0ff7f793          	andi	a5,a5,255
 9e0:	fef42423          	sw	a5,-24(s0)
 9e4:	fdc42783          	lw	a5,-36(s0)
 9e8:	00178793          	addi	a5,a5,1
 9ec:	fcf42e23          	sw	a5,-36(s0)
 9f0:	03c0006f          	j	a2c <atol+0xb8>
 9f4:	fec42703          	lw	a4,-20(s0)
 9f8:	00070793          	mv	a5,a4
 9fc:	00279793          	slli	a5,a5,0x2
 a00:	00e787b3          	add	a5,a5,a4
 a04:	00179793          	slli	a5,a5,0x1
 a08:	fef42623          	sw	a5,-20(s0)
 a0c:	fdc42783          	lw	a5,-36(s0)
 a10:	00178713          	addi	a4,a5,1
 a14:	fce42e23          	sw	a4,-36(s0)
 a18:	0007c783          	lbu	a5,0(a5)
 a1c:	fd078793          	addi	a5,a5,-48
 a20:	fec42703          	lw	a4,-20(s0)
 a24:	00f707b3          	add	a5,a4,a5
 a28:	fef42623          	sw	a5,-20(s0)
 a2c:	fdc42783          	lw	a5,-36(s0)
 a30:	0007c783          	lbu	a5,0(a5)
 a34:	fc0790e3          	bnez	a5,9f4 <atol+0x80>
 a38:	fe842783          	lw	a5,-24(s0)
 a3c:	00078863          	beqz	a5,a4c <atol+0xd8>
 a40:	fec42783          	lw	a5,-20(s0)
 a44:	40f007b3          	neg	a5,a5
 a48:	0080006f          	j	a50 <atol+0xdc>
 a4c:	fec42783          	lw	a5,-20(s0)
 a50:	00078513          	mv	a0,a5
 a54:	02c12403          	lw	s0,44(sp)
 a58:	03010113          	addi	sp,sp,48
 a5c:	00008067          	ret

00000a60 <end>:
 a60:	00000013          	nop
 a64:	00000013          	nop
 a68:	00000013          	nop
 a6c:	00000013          	nop
 a70:	00000013          	nop
 a74:	00000013          	nop

00000a78 <_last>:
 a78:	fe9ff06f          	j	a60 <end>

Disassembly of section .text.__eqdf2:

00000a7c <__eqdf2>:
 a7c:	0145d713          	srli	a4,a1,0x14
 a80:	001007b7          	lui	a5,0x100
 a84:	fff78793          	addi	a5,a5,-1 # fffff <sense.2917+0xfd173>
 a88:	0146d813          	srli	a6,a3,0x14
 a8c:	7ff77713          	andi	a4,a4,2047
 a90:	7ff00893          	li	a7,2047
 a94:	00b7fe33          	and	t3,a5,a1
 a98:	00050e93          	mv	t4,a0
 a9c:	00d7f7b3          	and	a5,a5,a3
 aa0:	01f5d593          	srli	a1,a1,0x1f
 aa4:	00060f13          	mv	t5,a2
 aa8:	7ff87813          	andi	a6,a6,2047
 aac:	01f6d693          	srli	a3,a3,0x1f
 ab0:	01170e63          	beq	a4,a7,acc <__eqdf2+0x50>
 ab4:	00100313          	li	t1,1
 ab8:	01180663          	beq	a6,a7,ac4 <__eqdf2+0x48>
 abc:	01071463          	bne	a4,a6,ac4 <__eqdf2+0x48>
 ac0:	02fe0263          	beq	t3,a5,ae4 <__eqdf2+0x68>
 ac4:	00030513          	mv	a0,t1
 ac8:	00008067          	ret
 acc:	00ae68b3          	or	a7,t3,a0
 ad0:	00100313          	li	t1,1
 ad4:	fe0898e3          	bnez	a7,ac4 <__eqdf2+0x48>
 ad8:	fee816e3          	bne	a6,a4,ac4 <__eqdf2+0x48>
 adc:	00c7e7b3          	or	a5,a5,a2
 ae0:	fe0792e3          	bnez	a5,ac4 <__eqdf2+0x48>
 ae4:	00100313          	li	t1,1
 ae8:	fdee9ee3          	bne	t4,t5,ac4 <__eqdf2+0x48>
 aec:	00000313          	li	t1,0
 af0:	fcd58ae3          	beq	a1,a3,ac4 <__eqdf2+0x48>
 af4:	00100313          	li	t1,1
 af8:	fc0716e3          	bnez	a4,ac4 <__eqdf2+0x48>
 afc:	00ae6533          	or	a0,t3,a0
 b00:	00a03333          	snez	t1,a0
 b04:	fc1ff06f          	j	ac4 <__eqdf2+0x48>

Disassembly of section .text.__emutls_get_address:

00000b08 <__emutls_get_address>:
 b08:	00852783          	lw	a5,8(a0)
 b0c:	00078663          	beqz	a5,b18 <__emutls_get_address+0x10>
 b10:	00078513          	mv	a0,a5
 b14:	00008067          	ret
 b18:	ff010113          	addi	sp,sp,-16
 b1c:	00912223          	sw	s1,4(sp)
 b20:	00452483          	lw	s1,4(a0)
 b24:	00812423          	sw	s0,8(sp)
 b28:	01212023          	sw	s2,0(sp)
 b2c:	00112623          	sw	ra,12(sp)
 b30:	00400793          	li	a5,4
 b34:	00050413          	mv	s0,a0
 b38:	00052903          	lw	s2,0(a0)
 b3c:	0097ee63          	bltu	a5,s1,b58 <__emutls_get_address+0x50>
 b40:	00490513          	addi	a0,s2,4
 b44:	d68ff0ef          	jal	ra,ac <malloc>
 b48:	08050063          	beqz	a0,bc8 <__emutls_get_address+0xc0>
 b4c:	00a52023          	sw	a0,0(a0)
 b50:	00450793          	addi	a5,a0,4
 b54:	0280006f          	j	b7c <__emutls_get_address+0x74>
 b58:	00990533          	add	a0,s2,s1
 b5c:	00350513          	addi	a0,a0,3
 b60:	d4cff0ef          	jal	ra,ac <malloc>
 b64:	06050263          	beqz	a0,bc8 <__emutls_get_address+0xc0>
 b68:	00348793          	addi	a5,s1,3
 b6c:	00f507b3          	add	a5,a0,a5
 b70:	409004b3          	neg	s1,s1
 b74:	0097f7b3          	and	a5,a5,s1
 b78:	fea7ae23          	sw	a0,-4(a5)
 b7c:	00c42583          	lw	a1,12(s0)
 b80:	00090613          	mv	a2,s2
 b84:	02058863          	beqz	a1,bb4 <__emutls_get_address+0xac>
 b88:	00078513          	mv	a0,a5
 b8c:	aadff0ef          	jal	ra,638 <memcpy>
 b90:	00050793          	mv	a5,a0
 b94:	00f42423          	sw	a5,8(s0)
 b98:	00c12083          	lw	ra,12(sp)
 b9c:	00812403          	lw	s0,8(sp)
 ba0:	00412483          	lw	s1,4(sp)
 ba4:	00012903          	lw	s2,0(sp)
 ba8:	00078513          	mv	a0,a5
 bac:	01010113          	addi	sp,sp,16
 bb0:	00008067          	ret
 bb4:	00078513          	mv	a0,a5
 bb8:	00000593          	li	a1,0
 bbc:	b59ff0ef          	jal	ra,714 <memset>
 bc0:	00050793          	mv	a5,a0
 bc4:	fd1ff06f          	j	b94 <__emutls_get_address+0x8c>
 bc8:	d04ff0ef          	jal	ra,cc <abort>

Disassembly of section .text.__emutls_register_common:

00000bcc <__emutls_register_common>:
 bcc:	00052783          	lw	a5,0(a0)
 bd0:	00b7f663          	bgeu	a5,a1,bdc <__emutls_register_common+0x10>
 bd4:	00b52023          	sw	a1,0(a0)
 bd8:	00052623          	sw	zero,12(a0)
 bdc:	00452783          	lw	a5,4(a0)
 be0:	00c7f463          	bgeu	a5,a2,be8 <__emutls_register_common+0x1c>
 be4:	00c52223          	sw	a2,4(a0)
 be8:	00068663          	beqz	a3,bf4 <__emutls_register_common+0x28>
 bec:	00052783          	lw	a5,0(a0)
 bf0:	00b78463          	beq	a5,a1,bf8 <__emutls_register_common+0x2c>
 bf4:	00008067          	ret
 bf8:	00d52623          	sw	a3,12(a0)
 bfc:	00008067          	ret
