
testit.riscv:     file format elf32-littleriscv


Disassembly of section .text:

00000000 <_start>:
   0:	00000093          	li	ra,0
   4:	00000113          	li	sp,0
   8:	00000193          	li	gp,0
   c:	00000213          	li	tp,0
  10:	00000293          	li	t0,0
  14:	00000313          	li	t1,0
  18:	00000393          	li	t2,0
  1c:	00000413          	li	s0,0
  20:	00000493          	li	s1,0
  24:	00000513          	li	a0,0
  28:	00000593          	li	a1,0
  2c:	00000613          	li	a2,0
  30:	00000693          	li	a3,0
  34:	00000713          	li	a4,0
  38:	00000793          	li	a5,0
  3c:	00000813          	li	a6,0
  40:	00000893          	li	a7,0
  44:	00000913          	li	s2,0
  48:	00000993          	li	s3,0
  4c:	00000a13          	li	s4,0
  50:	00000a93          	li	s5,0
  54:	00000b13          	li	s6,0
  58:	00000b93          	li	s7,0
  5c:	00000c13          	li	s8,0
  60:	00000c93          	li	s9,0
  64:	00000d13          	li	s10,0
  68:	00000d93          	li	s11,0
  6c:	00000e13          	li	t3,0
  70:	00000e93          	li	t4,0
  74:	00000f13          	li	t5,0
  78:	00000f93          	li	t6,0
  7c:	00003117          	auipc	sp,0x3
  80:	0e010113          	addi	sp,sp,224 # 315c <STACK>
  84:	238000ef          	jal	ra,2bc <main>
  88:	4cd0006f          	j	d54 <end>

0000008c <__sync_fetch_and_add_4>:
  8c:	ff010113          	addi	sp,sp,-16
  90:	00812623          	sw	s0,12(sp)
  94:	01010413          	addi	s0,sp,16
  98:	00000013          	nop
  9c:	00078513          	mv	a0,a5
  a0:	00c12403          	lw	s0,12(sp)
  a4:	01010113          	addi	sp,sp,16
  a8:	00008067          	ret

000000ac <malloc>:
  ac:	ff010113          	addi	sp,sp,-16
  b0:	00812623          	sw	s0,12(sp)
  b4:	01010413          	addi	s0,sp,16
  b8:	00000013          	nop
  bc:	00078513          	mv	a0,a5
  c0:	00c12403          	lw	s0,12(sp)
  c4:	01010113          	addi	sp,sp,16
  c8:	00008067          	ret

000000cc <abort>:
  cc:	ff010113          	addi	sp,sp,-16
  d0:	00812623          	sw	s0,12(sp)
  d4:	01010413          	addi	s0,sp,16
  d8:	00000013          	nop
  dc:	00078513          	mv	a0,a5
  e0:	00c12403          	lw	s0,12(sp)
  e4:	01010113          	addi	sp,sp,16
  e8:	00008067          	ret

000000ec <quicksort>:
  ec:	fd010113          	addi	sp,sp,-48
  f0:	02112623          	sw	ra,44(sp)
  f4:	02812423          	sw	s0,40(sp)
  f8:	03010413          	addi	s0,sp,48
  fc:	fca42e23          	sw	a0,-36(s0)
 100:	fcb42c23          	sw	a1,-40(s0)
 104:	fcc42a23          	sw	a2,-44(s0)
 108:	fd842703          	lw	a4,-40(s0)
 10c:	fd442783          	lw	a5,-44(s0)
 110:	18f75c63          	bge	a4,a5,2a8 <quicksort+0x1bc>
 114:	fd842783          	lw	a5,-40(s0)
 118:	fef42223          	sw	a5,-28(s0)
 11c:	fd842783          	lw	a5,-40(s0)
 120:	fef42623          	sw	a5,-20(s0)
 124:	fd442783          	lw	a5,-44(s0)
 128:	fef42423          	sw	a5,-24(s0)
 12c:	0e80006f          	j	214 <quicksort+0x128>
 130:	fec42783          	lw	a5,-20(s0)
 134:	00178793          	addi	a5,a5,1
 138:	fef42623          	sw	a5,-20(s0)
 13c:	fec42783          	lw	a5,-20(s0)
 140:	00279793          	slli	a5,a5,0x2
 144:	fdc42703          	lw	a4,-36(s0)
 148:	00f707b3          	add	a5,a4,a5
 14c:	0007a703          	lw	a4,0(a5)
 150:	fe442783          	lw	a5,-28(s0)
 154:	00279793          	slli	a5,a5,0x2
 158:	fdc42683          	lw	a3,-36(s0)
 15c:	00f687b3          	add	a5,a3,a5
 160:	0007a783          	lw	a5,0(a5)
 164:	02e7c063          	blt	a5,a4,184 <quicksort+0x98>
 168:	fec42703          	lw	a4,-20(s0)
 16c:	fd442783          	lw	a5,-44(s0)
 170:	fcf740e3          	blt	a4,a5,130 <quicksort+0x44>
 174:	0100006f          	j	184 <quicksort+0x98>
 178:	fe842783          	lw	a5,-24(s0)
 17c:	fff78793          	addi	a5,a5,-1
 180:	fef42423          	sw	a5,-24(s0)
 184:	fe842783          	lw	a5,-24(s0)
 188:	00279793          	slli	a5,a5,0x2
 18c:	fdc42703          	lw	a4,-36(s0)
 190:	00f707b3          	add	a5,a4,a5
 194:	0007a703          	lw	a4,0(a5)
 198:	fe442783          	lw	a5,-28(s0)
 19c:	00279793          	slli	a5,a5,0x2
 1a0:	fdc42683          	lw	a3,-36(s0)
 1a4:	00f687b3          	add	a5,a3,a5
 1a8:	0007a783          	lw	a5,0(a5)
 1ac:	fce7c6e3          	blt	a5,a4,178 <quicksort+0x8c>
 1b0:	fec42703          	lw	a4,-20(s0)
 1b4:	fe842783          	lw	a5,-24(s0)
 1b8:	04f75e63          	bge	a4,a5,214 <quicksort+0x128>
 1bc:	fec42783          	lw	a5,-20(s0)
 1c0:	00279793          	slli	a5,a5,0x2
 1c4:	fdc42703          	lw	a4,-36(s0)
 1c8:	00f707b3          	add	a5,a4,a5
 1cc:	0007a783          	lw	a5,0(a5)
 1d0:	fef42023          	sw	a5,-32(s0)
 1d4:	fe842783          	lw	a5,-24(s0)
 1d8:	00279793          	slli	a5,a5,0x2
 1dc:	fdc42703          	lw	a4,-36(s0)
 1e0:	00f70733          	add	a4,a4,a5
 1e4:	fec42783          	lw	a5,-20(s0)
 1e8:	00279793          	slli	a5,a5,0x2
 1ec:	fdc42683          	lw	a3,-36(s0)
 1f0:	00f687b3          	add	a5,a3,a5
 1f4:	00072703          	lw	a4,0(a4)
 1f8:	00e7a023          	sw	a4,0(a5)
 1fc:	fe842783          	lw	a5,-24(s0)
 200:	00279793          	slli	a5,a5,0x2
 204:	fdc42703          	lw	a4,-36(s0)
 208:	00f707b3          	add	a5,a4,a5
 20c:	fe042703          	lw	a4,-32(s0)
 210:	00e7a023          	sw	a4,0(a5)
 214:	fec42703          	lw	a4,-20(s0)
 218:	fe842783          	lw	a5,-24(s0)
 21c:	f2f740e3          	blt	a4,a5,13c <quicksort+0x50>
 220:	fe442783          	lw	a5,-28(s0)
 224:	00279793          	slli	a5,a5,0x2
 228:	fdc42703          	lw	a4,-36(s0)
 22c:	00f707b3          	add	a5,a4,a5
 230:	0007a783          	lw	a5,0(a5)
 234:	fef42023          	sw	a5,-32(s0)
 238:	fe842783          	lw	a5,-24(s0)
 23c:	00279793          	slli	a5,a5,0x2
 240:	fdc42703          	lw	a4,-36(s0)
 244:	00f70733          	add	a4,a4,a5
 248:	fe442783          	lw	a5,-28(s0)
 24c:	00279793          	slli	a5,a5,0x2
 250:	fdc42683          	lw	a3,-36(s0)
 254:	00f687b3          	add	a5,a3,a5
 258:	00072703          	lw	a4,0(a4)
 25c:	00e7a023          	sw	a4,0(a5)
 260:	fe842783          	lw	a5,-24(s0)
 264:	00279793          	slli	a5,a5,0x2
 268:	fdc42703          	lw	a4,-36(s0)
 26c:	00f707b3          	add	a5,a4,a5
 270:	fe042703          	lw	a4,-32(s0)
 274:	00e7a023          	sw	a4,0(a5)
 278:	fe842783          	lw	a5,-24(s0)
 27c:	fff78793          	addi	a5,a5,-1
 280:	00078613          	mv	a2,a5
 284:	fd842583          	lw	a1,-40(s0)
 288:	fdc42503          	lw	a0,-36(s0)
 28c:	e61ff0ef          	jal	ra,ec <quicksort>
 290:	fe842783          	lw	a5,-24(s0)
 294:	00178793          	addi	a5,a5,1
 298:	fd442603          	lw	a2,-44(s0)
 29c:	00078593          	mv	a1,a5
 2a0:	fdc42503          	lw	a0,-36(s0)
 2a4:	e49ff0ef          	jal	ra,ec <quicksort>
 2a8:	00000013          	nop
 2ac:	02c12083          	lw	ra,44(sp)
 2b0:	02812403          	lw	s0,40(sp)
 2b4:	03010113          	addi	sp,sp,48
 2b8:	00008067          	ret

000002bc <main>:
 2bc:	f2010113          	addi	sp,sp,-224
 2c0:	0c112e23          	sw	ra,220(sp)
 2c4:	0c812c23          	sw	s0,216(sp)
 2c8:	0e010413          	addi	s0,sp,224
 2cc:	f2a42623          	sw	a0,-212(s0)
 2d0:	f2b42423          	sw	a1,-216(s0)
 2d4:	fe042623          	sw	zero,-20(s0)
 2d8:	200007b7          	lui	a5,0x20000
 2dc:	00878793          	addi	a5,a5,8 # 20000008 <sense.2917+0x1fffce98>
 2e0:	fef42223          	sw	a5,-28(s0)
 2e4:	200007b7          	lui	a5,0x20000
 2e8:	fef42023          	sw	a5,-32(s0)
 2ec:	200007b7          	lui	a5,0x20000
 2f0:	00478793          	addi	a5,a5,4 # 20000004 <sense.2917+0x1fffce94>
 2f4:	fcf42e23          	sw	a5,-36(s0)
 2f8:	200007b7          	lui	a5,0x20000
 2fc:	01078793          	addi	a5,a5,16 # 20000010 <sense.2917+0x1fffcea0>
 300:	fcf42c23          	sw	a5,-40(s0)
 304:	100007b7          	lui	a5,0x10000
 308:	fcf42a23          	sw	a5,-44(s0)
 30c:	100007b7          	lui	a5,0x10000
 310:	00478793          	addi	a5,a5,4 # 10000004 <sense.2917+0xfffce94>
 314:	fcf42823          	sw	a5,-48(s0)
 318:	100007b7          	lui	a5,0x10000
 31c:	01078793          	addi	a5,a5,16 # 10000010 <sense.2917+0xfffcea0>
 320:	fcf42623          	sw	a5,-52(s0)
 324:	06800793          	li	a5,104
 328:	f8f42e23          	sw	a5,-100(s0)
 32c:	06500793          	li	a5,101
 330:	faf42023          	sw	a5,-96(s0)
 334:	06c00793          	li	a5,108
 338:	faf42223          	sw	a5,-92(s0)
 33c:	06c00793          	li	a5,108
 340:	faf42423          	sw	a5,-88(s0)
 344:	06f00793          	li	a5,111
 348:	faf42623          	sw	a5,-84(s0)
 34c:	0480006f          	j	394 <main+0xd8>
 350:	fe042783          	lw	a5,-32(s0)
 354:	0007a783          	lw	a5,0(a5)
 358:	fcf42423          	sw	a5,-56(s0)
 35c:	fe442783          	lw	a5,-28(s0)
 360:	fc842703          	lw	a4,-56(s0)
 364:	00e7a023          	sw	a4,0(a5)
 368:	fec42783          	lw	a5,-20(s0)
 36c:	00178713          	addi	a4,a5,1
 370:	fee42623          	sw	a4,-20(s0)
 374:	00279793          	slli	a5,a5,0x2
 378:	ff040713          	addi	a4,s0,-16
 37c:	00f707b3          	add	a5,a4,a5
 380:	fc842703          	lw	a4,-56(s0)
 384:	f4e7a423          	sw	a4,-184(a5)
 388:	fd842783          	lw	a5,-40(s0)
 38c:	00100713          	li	a4,1
 390:	00e7a023          	sw	a4,0(a5)
 394:	fdc42783          	lw	a5,-36(s0)
 398:	0007a783          	lw	a5,0(a5)
 39c:	fa079ae3          	bnez	a5,350 <main+0x94>
 3a0:	fec42783          	lw	a5,-20(s0)
 3a4:	fff78713          	addi	a4,a5,-1
 3a8:	f3840793          	addi	a5,s0,-200
 3ac:	00070613          	mv	a2,a4
 3b0:	00000593          	li	a1,0
 3b4:	00078513          	mv	a0,a5
 3b8:	d35ff0ef          	jal	ra,ec <quicksort>
 3bc:	fe042423          	sw	zero,-24(s0)
 3c0:	02c0006f          	j	3ec <main+0x130>
 3c4:	fe842783          	lw	a5,-24(s0)
 3c8:	00279793          	slli	a5,a5,0x2
 3cc:	ff040713          	addi	a4,s0,-16
 3d0:	00f707b3          	add	a5,a4,a5
 3d4:	f487a703          	lw	a4,-184(a5)
 3d8:	fd442783          	lw	a5,-44(s0)
 3dc:	00e7a023          	sw	a4,0(a5)
 3e0:	fe842783          	lw	a5,-24(s0)
 3e4:	00178793          	addi	a5,a5,1
 3e8:	fef42423          	sw	a5,-24(s0)
 3ec:	fe842703          	lw	a4,-24(s0)
 3f0:	fec42783          	lw	a5,-20(s0)
 3f4:	fcf748e3          	blt	a4,a5,3c4 <main+0x108>
 3f8:	300007b7          	lui	a5,0x30000
 3fc:	fcf42223          	sw	a5,-60(s0)
 400:	fc442783          	lw	a5,-60(s0)
 404:	0000e737          	lui	a4,0xe
 408:	dd570713          	addi	a4,a4,-555 # ddd5 <sense.2917+0xac65>
 40c:	00e7a023          	sw	a4,0(a5) # 30000000 <sense.2917+0x2fffce90>
 410:	00000793          	li	a5,0
 414:	00078513          	mv	a0,a5
 418:	0dc12083          	lw	ra,220(sp)
 41c:	0d812403          	lw	s0,216(sp)
 420:	0e010113          	addi	sp,sp,224
 424:	00008067          	ret

00000428 <verify>:
 428:	fc010113          	addi	sp,sp,-64
 42c:	02812e23          	sw	s0,60(sp)
 430:	04010413          	addi	s0,sp,64
 434:	fca42623          	sw	a0,-52(s0)
 438:	fcb42423          	sw	a1,-56(s0)
 43c:	fcc42223          	sw	a2,-60(s0)
 440:	fe042623          	sw	zero,-20(s0)
 444:	0a80006f          	j	4ec <verify+0xc4>
 448:	fec42783          	lw	a5,-20(s0)
 44c:	00279793          	slli	a5,a5,0x2
 450:	fc842703          	lw	a4,-56(s0)
 454:	00f707b3          	add	a5,a4,a5
 458:	0007a783          	lw	a5,0(a5)
 45c:	fef42423          	sw	a5,-24(s0)
 460:	fec42783          	lw	a5,-20(s0)
 464:	00178793          	addi	a5,a5,1
 468:	00279793          	slli	a5,a5,0x2
 46c:	fc842703          	lw	a4,-56(s0)
 470:	00f707b3          	add	a5,a4,a5
 474:	0007a783          	lw	a5,0(a5)
 478:	fef42223          	sw	a5,-28(s0)
 47c:	fec42783          	lw	a5,-20(s0)
 480:	00279793          	slli	a5,a5,0x2
 484:	fc442703          	lw	a4,-60(s0)
 488:	00f707b3          	add	a5,a4,a5
 48c:	0007a783          	lw	a5,0(a5)
 490:	fef42023          	sw	a5,-32(s0)
 494:	fec42783          	lw	a5,-20(s0)
 498:	00178793          	addi	a5,a5,1
 49c:	00279793          	slli	a5,a5,0x2
 4a0:	fc442703          	lw	a4,-60(s0)
 4a4:	00f707b3          	add	a5,a4,a5
 4a8:	0007a783          	lw	a5,0(a5)
 4ac:	fcf42e23          	sw	a5,-36(s0)
 4b0:	fe842703          	lw	a4,-24(s0)
 4b4:	fe042783          	lw	a5,-32(s0)
 4b8:	00f70863          	beq	a4,a5,4c8 <verify+0xa0>
 4bc:	fec42783          	lw	a5,-20(s0)
 4c0:	00178793          	addi	a5,a5,1
 4c4:	0a40006f          	j	568 <verify+0x140>
 4c8:	fe442703          	lw	a4,-28(s0)
 4cc:	fdc42783          	lw	a5,-36(s0)
 4d0:	00f70863          	beq	a4,a5,4e0 <verify+0xb8>
 4d4:	fec42783          	lw	a5,-20(s0)
 4d8:	00278793          	addi	a5,a5,2
 4dc:	08c0006f          	j	568 <verify+0x140>
 4e0:	fec42783          	lw	a5,-20(s0)
 4e4:	00278793          	addi	a5,a5,2
 4e8:	fef42623          	sw	a5,-20(s0)
 4ec:	fcc42783          	lw	a5,-52(s0)
 4f0:	01f7d713          	srli	a4,a5,0x1f
 4f4:	00f707b3          	add	a5,a4,a5
 4f8:	4017d793          	srai	a5,a5,0x1
 4fc:	00179793          	slli	a5,a5,0x1
 500:	fec42703          	lw	a4,-20(s0)
 504:	f4f742e3          	blt	a4,a5,448 <verify+0x20>
 508:	fcc42783          	lw	a5,-52(s0)
 50c:	0017f793          	andi	a5,a5,1
 510:	04078863          	beqz	a5,560 <verify+0x138>
 514:	fcc42703          	lw	a4,-52(s0)
 518:	400007b7          	lui	a5,0x40000
 51c:	fff78793          	addi	a5,a5,-1 # 3fffffff <sense.2917+0x3fffce8f>
 520:	00f707b3          	add	a5,a4,a5
 524:	00279793          	slli	a5,a5,0x2
 528:	fc842703          	lw	a4,-56(s0)
 52c:	00f707b3          	add	a5,a4,a5
 530:	0007a703          	lw	a4,0(a5)
 534:	fcc42683          	lw	a3,-52(s0)
 538:	400007b7          	lui	a5,0x40000
 53c:	fff78793          	addi	a5,a5,-1 # 3fffffff <sense.2917+0x3fffce8f>
 540:	00f687b3          	add	a5,a3,a5
 544:	00279793          	slli	a5,a5,0x2
 548:	fc442683          	lw	a3,-60(s0)
 54c:	00f687b3          	add	a5,a3,a5
 550:	0007a783          	lw	a5,0(a5)
 554:	00f70663          	beq	a4,a5,560 <verify+0x138>
 558:	fcc42783          	lw	a5,-52(s0)
 55c:	00c0006f          	j	568 <verify+0x140>
 560:	00bc67b7          	lui	a5,0xbc6
 564:	14e78793          	addi	a5,a5,334 # bc614e <sense.2917+0xbc2fde>
 568:	00078513          	mv	a0,a5
 56c:	03c12403          	lw	s0,60(sp)
 570:	04010113          	addi	sp,sp,64
 574:	00008067          	ret

00000578 <verifyDouble>:
 578:	fb010113          	addi	sp,sp,-80
 57c:	04112623          	sw	ra,76(sp)
 580:	04812423          	sw	s0,72(sp)
 584:	04912223          	sw	s1,68(sp)
 588:	05010413          	addi	s0,sp,80
 58c:	faa42e23          	sw	a0,-68(s0)
 590:	fab42c23          	sw	a1,-72(s0)
 594:	fac42a23          	sw	a2,-76(s0)
 598:	fe042623          	sw	zero,-20(s0)
 59c:	1140006f          	j	6b0 <verifyDouble+0x138>
 5a0:	fec42783          	lw	a5,-20(s0)
 5a4:	00379793          	slli	a5,a5,0x3
 5a8:	fb842703          	lw	a4,-72(s0)
 5ac:	00f707b3          	add	a5,a4,a5
 5b0:	0047a803          	lw	a6,4(a5)
 5b4:	0007a783          	lw	a5,0(a5)
 5b8:	fef42023          	sw	a5,-32(s0)
 5bc:	ff042223          	sw	a6,-28(s0)
 5c0:	fec42783          	lw	a5,-20(s0)
 5c4:	00178793          	addi	a5,a5,1
 5c8:	00379793          	slli	a5,a5,0x3
 5cc:	fb842703          	lw	a4,-72(s0)
 5d0:	00f707b3          	add	a5,a4,a5
 5d4:	0047a803          	lw	a6,4(a5)
 5d8:	0007a783          	lw	a5,0(a5)
 5dc:	fcf42c23          	sw	a5,-40(s0)
 5e0:	fd042e23          	sw	a6,-36(s0)
 5e4:	fec42783          	lw	a5,-20(s0)
 5e8:	00379793          	slli	a5,a5,0x3
 5ec:	fb442703          	lw	a4,-76(s0)
 5f0:	00f707b3          	add	a5,a4,a5
 5f4:	0047a803          	lw	a6,4(a5)
 5f8:	0007a783          	lw	a5,0(a5)
 5fc:	fcf42823          	sw	a5,-48(s0)
 600:	fd042a23          	sw	a6,-44(s0)
 604:	fec42783          	lw	a5,-20(s0)
 608:	00178793          	addi	a5,a5,1
 60c:	00379793          	slli	a5,a5,0x3
 610:	fb442703          	lw	a4,-76(s0)
 614:	00f707b3          	add	a5,a4,a5
 618:	0047a803          	lw	a6,4(a5)
 61c:	0007a783          	lw	a5,0(a5)
 620:	fcf42423          	sw	a5,-56(s0)
 624:	fd042623          	sw	a6,-52(s0)
 628:	00100493          	li	s1,1
 62c:	fd042603          	lw	a2,-48(s0)
 630:	fd442683          	lw	a3,-44(s0)
 634:	fe042503          	lw	a0,-32(s0)
 638:	fe442583          	lw	a1,-28(s0)
 63c:	734000ef          	jal	ra,d70 <__eqdf2>
 640:	00050793          	mv	a5,a0
 644:	00078463          	beqz	a5,64c <verifyDouble+0xd4>
 648:	00000493          	li	s1,0
 64c:	0ff4f793          	andi	a5,s1,255
 650:	fcf42223          	sw	a5,-60(s0)
 654:	00100493          	li	s1,1
 658:	fc842603          	lw	a2,-56(s0)
 65c:	fcc42683          	lw	a3,-52(s0)
 660:	fd842503          	lw	a0,-40(s0)
 664:	fdc42583          	lw	a1,-36(s0)
 668:	708000ef          	jal	ra,d70 <__eqdf2>
 66c:	00050793          	mv	a5,a0
 670:	00078463          	beqz	a5,678 <verifyDouble+0x100>
 674:	00000493          	li	s1,0
 678:	0ff4f793          	andi	a5,s1,255
 67c:	fcf42023          	sw	a5,-64(s0)
 680:	fc442703          	lw	a4,-60(s0)
 684:	fc042783          	lw	a5,-64(s0)
 688:	00f777b3          	and	a5,a4,a5
 68c:	00079c63          	bnez	a5,6a4 <verifyDouble+0x12c>
 690:	fec42783          	lw	a5,-20(s0)
 694:	00178713          	addi	a4,a5,1
 698:	fc442783          	lw	a5,-60(s0)
 69c:	00f707b3          	add	a5,a4,a5
 6a0:	0a80006f          	j	748 <verifyDouble+0x1d0>
 6a4:	fec42783          	lw	a5,-20(s0)
 6a8:	00278793          	addi	a5,a5,2
 6ac:	fef42623          	sw	a5,-20(s0)
 6b0:	fbc42783          	lw	a5,-68(s0)
 6b4:	01f7d713          	srli	a4,a5,0x1f
 6b8:	00f707b3          	add	a5,a4,a5
 6bc:	4017d793          	srai	a5,a5,0x1
 6c0:	00179793          	slli	a5,a5,0x1
 6c4:	fec42703          	lw	a4,-20(s0)
 6c8:	ecf74ce3          	blt	a4,a5,5a0 <verifyDouble+0x28>
 6cc:	fbc42783          	lw	a5,-68(s0)
 6d0:	0017f793          	andi	a5,a5,1
 6d4:	06078863          	beqz	a5,744 <verifyDouble+0x1cc>
 6d8:	fbc42703          	lw	a4,-68(s0)
 6dc:	200007b7          	lui	a5,0x20000
 6e0:	fff78793          	addi	a5,a5,-1 # 1fffffff <sense.2917+0x1fffce8f>
 6e4:	00f707b3          	add	a5,a4,a5
 6e8:	00379793          	slli	a5,a5,0x3
 6ec:	fb842703          	lw	a4,-72(s0)
 6f0:	00f707b3          	add	a5,a4,a5
 6f4:	0047a803          	lw	a6,4(a5)
 6f8:	0007a783          	lw	a5,0(a5)
 6fc:	fbc42683          	lw	a3,-68(s0)
 700:	20000737          	lui	a4,0x20000
 704:	fff70713          	addi	a4,a4,-1 # 1fffffff <sense.2917+0x1fffce8f>
 708:	00e68733          	add	a4,a3,a4
 70c:	00371713          	slli	a4,a4,0x3
 710:	fb442683          	lw	a3,-76(s0)
 714:	00e68733          	add	a4,a3,a4
 718:	00072683          	lw	a3,0(a4)
 71c:	00472703          	lw	a4,4(a4)
 720:	00068613          	mv	a2,a3
 724:	00070693          	mv	a3,a4
 728:	00078513          	mv	a0,a5
 72c:	00080593          	mv	a1,a6
 730:	640000ef          	jal	ra,d70 <__eqdf2>
 734:	00050793          	mv	a5,a0
 738:	00078663          	beqz	a5,744 <verifyDouble+0x1cc>
 73c:	fbc42783          	lw	a5,-68(s0)
 740:	0080006f          	j	748 <verifyDouble+0x1d0>
 744:	00000793          	li	a5,0
 748:	00078513          	mv	a0,a5
 74c:	04c12083          	lw	ra,76(sp)
 750:	04812403          	lw	s0,72(sp)
 754:	04412483          	lw	s1,68(sp)
 758:	05010113          	addi	sp,sp,80
 75c:	00008067          	ret

00000760 <barrier>:
 760:	fe010113          	addi	sp,sp,-32
 764:	00112e23          	sw	ra,28(sp)
 768:	00812c23          	sw	s0,24(sp)
 76c:	00912a23          	sw	s1,20(sp)
 770:	02010413          	addi	s0,sp,32
 774:	fea42623          	sw	a0,-20(s0)
 778:	0ff0000f          	fence
 77c:	00001517          	auipc	a0,0x1
 780:	8d050513          	addi	a0,a0,-1840 # 104c <__emutls_v.threadsense.2919>
 784:	678000ef          	jal	ra,dfc <__emutls_get_address>
 788:	00050793          	mv	a5,a0
 78c:	0007a703          	lw	a4,0(a5)
 790:	00173713          	seqz	a4,a4
 794:	0ff77713          	andi	a4,a4,255
 798:	00e7a023          	sw	a4,0(a5)
 79c:	00100593          	li	a1,1
 7a0:	00003517          	auipc	a0,0x3
 7a4:	9cc50513          	addi	a0,a0,-1588 # 316c <count.2918>
 7a8:	8e5ff0ef          	jal	ra,8c <__sync_fetch_and_add_4>
 7ac:	00050793          	mv	a5,a0
 7b0:	00078713          	mv	a4,a5
 7b4:	fec42783          	lw	a5,-20(s0)
 7b8:	fff78793          	addi	a5,a5,-1
 7bc:	02f71a63          	bne	a4,a5,7f0 <barrier+0x90>
 7c0:	00003797          	auipc	a5,0x3
 7c4:	9ac78793          	addi	a5,a5,-1620 # 316c <count.2918>
 7c8:	0007a023          	sw	zero,0(a5)
 7cc:	00001517          	auipc	a0,0x1
 7d0:	88050513          	addi	a0,a0,-1920 # 104c <__emutls_v.threadsense.2919>
 7d4:	628000ef          	jal	ra,dfc <__emutls_get_address>
 7d8:	00050793          	mv	a5,a0
 7dc:	0007a703          	lw	a4,0(a5)
 7e0:	00003797          	auipc	a5,0x3
 7e4:	99078793          	addi	a5,a5,-1648 # 3170 <sense.2917>
 7e8:	00e7a023          	sw	a4,0(a5)
 7ec:	02c0006f          	j	818 <barrier+0xb8>
 7f0:	00000013          	nop
 7f4:	00003797          	auipc	a5,0x3
 7f8:	97c78793          	addi	a5,a5,-1668 # 3170 <sense.2917>
 7fc:	0007a483          	lw	s1,0(a5)
 800:	00001517          	auipc	a0,0x1
 804:	84c50513          	addi	a0,a0,-1972 # 104c <__emutls_v.threadsense.2919>
 808:	5f4000ef          	jal	ra,dfc <__emutls_get_address>
 80c:	00050793          	mv	a5,a0
 810:	0007a783          	lw	a5,0(a5)
 814:	fef490e3          	bne	s1,a5,7f4 <barrier+0x94>
 818:	0ff0000f          	fence
 81c:	00000013          	nop
 820:	01c12083          	lw	ra,28(sp)
 824:	01812403          	lw	s0,24(sp)
 828:	01412483          	lw	s1,20(sp)
 82c:	02010113          	addi	sp,sp,32
 830:	00008067          	ret

00000834 <lfsr>:
 834:	fd010113          	addi	sp,sp,-48
 838:	02812623          	sw	s0,44(sp)
 83c:	03010413          	addi	s0,sp,48
 840:	fca42c23          	sw	a0,-40(s0)
 844:	fcb42e23          	sw	a1,-36(s0)
 848:	fdc42603          	lw	a2,-36(s0)
 84c:	01f61613          	slli	a2,a2,0x1f
 850:	fd842583          	lw	a1,-40(s0)
 854:	0015d693          	srli	a3,a1,0x1
 858:	00d666b3          	or	a3,a2,a3
 85c:	fdc42603          	lw	a2,-36(s0)
 860:	00165713          	srli	a4,a2,0x1
 864:	fd842603          	lw	a2,-40(s0)
 868:	00d64333          	xor	t1,a2,a3
 86c:	fdc42603          	lw	a2,-36(s0)
 870:	00e643b3          	xor	t2,a2,a4
 874:	00137713          	andi	a4,t1,1
 878:	fee42423          	sw	a4,-24(s0)
 87c:	0003f713          	andi	a4,t2,0
 880:	fee42623          	sw	a4,-20(s0)
 884:	fdc42703          	lw	a4,-36(s0)
 888:	01f71713          	slli	a4,a4,0x1f
 88c:	fd842683          	lw	a3,-40(s0)
 890:	0016d793          	srli	a5,a3,0x1
 894:	00f767b3          	or	a5,a4,a5
 898:	fdc42703          	lw	a4,-36(s0)
 89c:	00175813          	srli	a6,a4,0x1
 8a0:	fe842703          	lw	a4,-24(s0)
 8a4:	01e71e93          	slli	t4,a4,0x1e
 8a8:	00000e13          	li	t3,0
 8ac:	01c7ef33          	or	t5,a5,t3
 8b0:	01d86fb3          	or	t6,a6,t4
 8b4:	000f0793          	mv	a5,t5
 8b8:	000f8813          	mv	a6,t6
 8bc:	00078513          	mv	a0,a5
 8c0:	00080593          	mv	a1,a6
 8c4:	02c12403          	lw	s0,44(sp)
 8c8:	03010113          	addi	sp,sp,48
 8cc:	00008067          	ret

000008d0 <insn_len>:
 8d0:	fe010113          	addi	sp,sp,-32
 8d4:	00812e23          	sw	s0,28(sp)
 8d8:	02010413          	addi	s0,sp,32
 8dc:	fea42623          	sw	a0,-20(s0)
 8e0:	fec42783          	lw	a5,-20(s0)
 8e4:	0007d783          	lhu	a5,0(a5)
 8e8:	0037f793          	andi	a5,a5,3
 8ec:	00078663          	beqz	a5,8f8 <insn_len+0x28>
 8f0:	00400793          	li	a5,4
 8f4:	0080006f          	j	8fc <insn_len+0x2c>
 8f8:	00200793          	li	a5,2
 8fc:	00078513          	mv	a0,a5
 900:	01c12403          	lw	s0,28(sp)
 904:	02010113          	addi	sp,sp,32
 908:	00008067          	ret

0000090c <setStats>:
 90c:	fe010113          	addi	sp,sp,-32
 910:	00812e23          	sw	s0,28(sp)
 914:	02010413          	addi	s0,sp,32
 918:	fea42623          	sw	a0,-20(s0)
 91c:	00000013          	nop
 920:	01c12403          	lw	s0,28(sp)
 924:	02010113          	addi	sp,sp,32
 928:	00008067          	ret

0000092c <memcpy>:
 92c:	fd010113          	addi	sp,sp,-48
 930:	02812623          	sw	s0,44(sp)
 934:	03010413          	addi	s0,sp,48
 938:	fca42e23          	sw	a0,-36(s0)
 93c:	fcb42c23          	sw	a1,-40(s0)
 940:	fcc42a23          	sw	a2,-44(s0)
 944:	fdc42703          	lw	a4,-36(s0)
 948:	fd842783          	lw	a5,-40(s0)
 94c:	00f76733          	or	a4,a4,a5
 950:	fd442783          	lw	a5,-44(s0)
 954:	00f767b3          	or	a5,a4,a5
 958:	0037f793          	andi	a5,a5,3
 95c:	04079863          	bnez	a5,9ac <memcpy+0x80>
 960:	fd842783          	lw	a5,-40(s0)
 964:	fef42623          	sw	a5,-20(s0)
 968:	fdc42783          	lw	a5,-36(s0)
 96c:	fef42423          	sw	a5,-24(s0)
 970:	0240006f          	j	994 <memcpy+0x68>
 974:	fec42703          	lw	a4,-20(s0)
 978:	00470793          	addi	a5,a4,4
 97c:	fef42623          	sw	a5,-20(s0)
 980:	fe842783          	lw	a5,-24(s0)
 984:	00478693          	addi	a3,a5,4
 988:	fed42423          	sw	a3,-24(s0)
 98c:	00072703          	lw	a4,0(a4)
 990:	00e7a023          	sw	a4,0(a5)
 994:	fdc42703          	lw	a4,-36(s0)
 998:	fd442783          	lw	a5,-44(s0)
 99c:	00f707b3          	add	a5,a4,a5
 9a0:	fe842703          	lw	a4,-24(s0)
 9a4:	fcf768e3          	bltu	a4,a5,974 <memcpy+0x48>
 9a8:	04c0006f          	j	9f4 <memcpy+0xc8>
 9ac:	fd842783          	lw	a5,-40(s0)
 9b0:	fef42223          	sw	a5,-28(s0)
 9b4:	fdc42783          	lw	a5,-36(s0)
 9b8:	fef42023          	sw	a5,-32(s0)
 9bc:	0240006f          	j	9e0 <memcpy+0xb4>
 9c0:	fe442703          	lw	a4,-28(s0)
 9c4:	00170793          	addi	a5,a4,1
 9c8:	fef42223          	sw	a5,-28(s0)
 9cc:	fe042783          	lw	a5,-32(s0)
 9d0:	00178693          	addi	a3,a5,1
 9d4:	fed42023          	sw	a3,-32(s0)
 9d8:	00074703          	lbu	a4,0(a4)
 9dc:	00e78023          	sb	a4,0(a5)
 9e0:	fdc42703          	lw	a4,-36(s0)
 9e4:	fd442783          	lw	a5,-44(s0)
 9e8:	00f707b3          	add	a5,a4,a5
 9ec:	fe042703          	lw	a4,-32(s0)
 9f0:	fcf768e3          	bltu	a4,a5,9c0 <memcpy+0x94>
 9f4:	fdc42783          	lw	a5,-36(s0)
 9f8:	00078513          	mv	a0,a5
 9fc:	02c12403          	lw	s0,44(sp)
 a00:	03010113          	addi	sp,sp,48
 a04:	00008067          	ret

00000a08 <memset>:
 a08:	fd010113          	addi	sp,sp,-48
 a0c:	02812623          	sw	s0,44(sp)
 a10:	03010413          	addi	s0,sp,48
 a14:	fca42e23          	sw	a0,-36(s0)
 a18:	fcb42c23          	sw	a1,-40(s0)
 a1c:	fcc42a23          	sw	a2,-44(s0)
 a20:	fdc42703          	lw	a4,-36(s0)
 a24:	fd442783          	lw	a5,-44(s0)
 a28:	00f767b3          	or	a5,a4,a5
 a2c:	0037f793          	andi	a5,a5,3
 a30:	06079863          	bnez	a5,aa0 <memset+0x98>
 a34:	fd842783          	lw	a5,-40(s0)
 a38:	0ff7f793          	andi	a5,a5,255
 a3c:	fef42223          	sw	a5,-28(s0)
 a40:	fe442783          	lw	a5,-28(s0)
 a44:	00879793          	slli	a5,a5,0x8
 a48:	fe442703          	lw	a4,-28(s0)
 a4c:	00f767b3          	or	a5,a4,a5
 a50:	fef42223          	sw	a5,-28(s0)
 a54:	fe442783          	lw	a5,-28(s0)
 a58:	01079793          	slli	a5,a5,0x10
 a5c:	fe442703          	lw	a4,-28(s0)
 a60:	00f767b3          	or	a5,a4,a5
 a64:	fef42223          	sw	a5,-28(s0)
 a68:	fdc42783          	lw	a5,-36(s0)
 a6c:	fef42623          	sw	a5,-20(s0)
 a70:	0180006f          	j	a88 <memset+0x80>
 a74:	fec42783          	lw	a5,-20(s0)
 a78:	00478713          	addi	a4,a5,4
 a7c:	fee42623          	sw	a4,-20(s0)
 a80:	fe442703          	lw	a4,-28(s0)
 a84:	00e7a023          	sw	a4,0(a5)
 a88:	fdc42703          	lw	a4,-36(s0)
 a8c:	fd442783          	lw	a5,-44(s0)
 a90:	00f707b3          	add	a5,a4,a5
 a94:	fec42703          	lw	a4,-20(s0)
 a98:	fcf76ee3          	bltu	a4,a5,a74 <memset+0x6c>
 a9c:	03c0006f          	j	ad8 <memset+0xd0>
 aa0:	fdc42783          	lw	a5,-36(s0)
 aa4:	fef42423          	sw	a5,-24(s0)
 aa8:	01c0006f          	j	ac4 <memset+0xbc>
 aac:	fe842783          	lw	a5,-24(s0)
 ab0:	00178713          	addi	a4,a5,1
 ab4:	fee42423          	sw	a4,-24(s0)
 ab8:	fd842703          	lw	a4,-40(s0)
 abc:	0ff77713          	andi	a4,a4,255
 ac0:	00e78023          	sb	a4,0(a5)
 ac4:	fdc42703          	lw	a4,-36(s0)
 ac8:	fd442783          	lw	a5,-44(s0)
 acc:	00f707b3          	add	a5,a4,a5
 ad0:	fe842703          	lw	a4,-24(s0)
 ad4:	fcf76ce3          	bltu	a4,a5,aac <memset+0xa4>
 ad8:	fdc42783          	lw	a5,-36(s0)
 adc:	00078513          	mv	a0,a5
 ae0:	02c12403          	lw	s0,44(sp)
 ae4:	03010113          	addi	sp,sp,48
 ae8:	00008067          	ret

00000aec <strlen>:
 aec:	fd010113          	addi	sp,sp,-48
 af0:	02812623          	sw	s0,44(sp)
 af4:	03010413          	addi	s0,sp,48
 af8:	fca42e23          	sw	a0,-36(s0)
 afc:	fdc42783          	lw	a5,-36(s0)
 b00:	fef42623          	sw	a5,-20(s0)
 b04:	0100006f          	j	b14 <strlen+0x28>
 b08:	fec42783          	lw	a5,-20(s0)
 b0c:	00178793          	addi	a5,a5,1
 b10:	fef42623          	sw	a5,-20(s0)
 b14:	fec42783          	lw	a5,-20(s0)
 b18:	0007c783          	lbu	a5,0(a5)
 b1c:	fe0796e3          	bnez	a5,b08 <strlen+0x1c>
 b20:	fec42703          	lw	a4,-20(s0)
 b24:	fdc42783          	lw	a5,-36(s0)
 b28:	40f707b3          	sub	a5,a4,a5
 b2c:	00078513          	mv	a0,a5
 b30:	02c12403          	lw	s0,44(sp)
 b34:	03010113          	addi	sp,sp,48
 b38:	00008067          	ret

00000b3c <strnlen>:
 b3c:	fd010113          	addi	sp,sp,-48
 b40:	02812623          	sw	s0,44(sp)
 b44:	03010413          	addi	s0,sp,48
 b48:	fca42e23          	sw	a0,-36(s0)
 b4c:	fcb42c23          	sw	a1,-40(s0)
 b50:	fdc42783          	lw	a5,-36(s0)
 b54:	fef42623          	sw	a5,-20(s0)
 b58:	0100006f          	j	b68 <strnlen+0x2c>
 b5c:	fec42783          	lw	a5,-20(s0)
 b60:	00178793          	addi	a5,a5,1
 b64:	fef42623          	sw	a5,-20(s0)
 b68:	fd842783          	lw	a5,-40(s0)
 b6c:	fff78713          	addi	a4,a5,-1
 b70:	fce42c23          	sw	a4,-40(s0)
 b74:	00078863          	beqz	a5,b84 <strnlen+0x48>
 b78:	fec42783          	lw	a5,-20(s0)
 b7c:	0007c783          	lbu	a5,0(a5)
 b80:	fc079ee3          	bnez	a5,b5c <strnlen+0x20>
 b84:	fec42703          	lw	a4,-20(s0)
 b88:	fdc42783          	lw	a5,-36(s0)
 b8c:	40f707b3          	sub	a5,a4,a5
 b90:	00078513          	mv	a0,a5
 b94:	02c12403          	lw	s0,44(sp)
 b98:	03010113          	addi	sp,sp,48
 b9c:	00008067          	ret

00000ba0 <strcmp>:
 ba0:	fd010113          	addi	sp,sp,-48
 ba4:	02812623          	sw	s0,44(sp)
 ba8:	03010413          	addi	s0,sp,48
 bac:	fca42e23          	sw	a0,-36(s0)
 bb0:	fcb42c23          	sw	a1,-40(s0)
 bb4:	fdc42783          	lw	a5,-36(s0)
 bb8:	00178713          	addi	a4,a5,1
 bbc:	fce42e23          	sw	a4,-36(s0)
 bc0:	0007c783          	lbu	a5,0(a5)
 bc4:	fef407a3          	sb	a5,-17(s0)
 bc8:	fd842783          	lw	a5,-40(s0)
 bcc:	00178713          	addi	a4,a5,1
 bd0:	fce42c23          	sw	a4,-40(s0)
 bd4:	0007c783          	lbu	a5,0(a5)
 bd8:	fef40723          	sb	a5,-18(s0)
 bdc:	fef44783          	lbu	a5,-17(s0)
 be0:	00078863          	beqz	a5,bf0 <strcmp+0x50>
 be4:	fef44703          	lbu	a4,-17(s0)
 be8:	fee44783          	lbu	a5,-18(s0)
 bec:	fcf704e3          	beq	a4,a5,bb4 <strcmp+0x14>
 bf0:	fef44703          	lbu	a4,-17(s0)
 bf4:	fee44783          	lbu	a5,-18(s0)
 bf8:	40f707b3          	sub	a5,a4,a5
 bfc:	00078513          	mv	a0,a5
 c00:	02c12403          	lw	s0,44(sp)
 c04:	03010113          	addi	sp,sp,48
 c08:	00008067          	ret

00000c0c <strcpy>:
 c0c:	fd010113          	addi	sp,sp,-48
 c10:	02812623          	sw	s0,44(sp)
 c14:	03010413          	addi	s0,sp,48
 c18:	fca42e23          	sw	a0,-36(s0)
 c1c:	fcb42c23          	sw	a1,-40(s0)
 c20:	fdc42783          	lw	a5,-36(s0)
 c24:	fef42623          	sw	a5,-20(s0)
 c28:	00000013          	nop
 c2c:	fd842703          	lw	a4,-40(s0)
 c30:	00170793          	addi	a5,a4,1
 c34:	fcf42c23          	sw	a5,-40(s0)
 c38:	fec42783          	lw	a5,-20(s0)
 c3c:	00178693          	addi	a3,a5,1
 c40:	fed42623          	sw	a3,-20(s0)
 c44:	00074703          	lbu	a4,0(a4)
 c48:	00e78023          	sb	a4,0(a5)
 c4c:	0007c783          	lbu	a5,0(a5)
 c50:	fc079ee3          	bnez	a5,c2c <strcpy+0x20>
 c54:	fdc42783          	lw	a5,-36(s0)
 c58:	00078513          	mv	a0,a5
 c5c:	02c12403          	lw	s0,44(sp)
 c60:	03010113          	addi	sp,sp,48
 c64:	00008067          	ret

00000c68 <atol>:
 c68:	fd010113          	addi	sp,sp,-48
 c6c:	02812623          	sw	s0,44(sp)
 c70:	03010413          	addi	s0,sp,48
 c74:	fca42e23          	sw	a0,-36(s0)
 c78:	fe042623          	sw	zero,-20(s0)
 c7c:	fe042423          	sw	zero,-24(s0)
 c80:	0100006f          	j	c90 <atol+0x28>
 c84:	fdc42783          	lw	a5,-36(s0)
 c88:	00178793          	addi	a5,a5,1
 c8c:	fcf42e23          	sw	a5,-36(s0)
 c90:	fdc42783          	lw	a5,-36(s0)
 c94:	0007c703          	lbu	a4,0(a5)
 c98:	02000793          	li	a5,32
 c9c:	fef704e3          	beq	a4,a5,c84 <atol+0x1c>
 ca0:	fdc42783          	lw	a5,-36(s0)
 ca4:	0007c703          	lbu	a4,0(a5)
 ca8:	02d00793          	li	a5,45
 cac:	00f70a63          	beq	a4,a5,cc0 <atol+0x58>
 cb0:	fdc42783          	lw	a5,-36(s0)
 cb4:	0007c703          	lbu	a4,0(a5)
 cb8:	02b00793          	li	a5,43
 cbc:	06f71263          	bne	a4,a5,d20 <atol+0xb8>
 cc0:	fdc42783          	lw	a5,-36(s0)
 cc4:	0007c783          	lbu	a5,0(a5)
 cc8:	fd378793          	addi	a5,a5,-45
 ccc:	0017b793          	seqz	a5,a5
 cd0:	0ff7f793          	andi	a5,a5,255
 cd4:	fef42423          	sw	a5,-24(s0)
 cd8:	fdc42783          	lw	a5,-36(s0)
 cdc:	00178793          	addi	a5,a5,1
 ce0:	fcf42e23          	sw	a5,-36(s0)
 ce4:	03c0006f          	j	d20 <atol+0xb8>
 ce8:	fec42703          	lw	a4,-20(s0)
 cec:	00070793          	mv	a5,a4
 cf0:	00279793          	slli	a5,a5,0x2
 cf4:	00e787b3          	add	a5,a5,a4
 cf8:	00179793          	slli	a5,a5,0x1
 cfc:	fef42623          	sw	a5,-20(s0)
 d00:	fdc42783          	lw	a5,-36(s0)
 d04:	00178713          	addi	a4,a5,1
 d08:	fce42e23          	sw	a4,-36(s0)
 d0c:	0007c783          	lbu	a5,0(a5)
 d10:	fd078793          	addi	a5,a5,-48
 d14:	fec42703          	lw	a4,-20(s0)
 d18:	00f707b3          	add	a5,a4,a5
 d1c:	fef42623          	sw	a5,-20(s0)
 d20:	fdc42783          	lw	a5,-36(s0)
 d24:	0007c783          	lbu	a5,0(a5)
 d28:	fc0790e3          	bnez	a5,ce8 <atol+0x80>
 d2c:	fe842783          	lw	a5,-24(s0)
 d30:	00078863          	beqz	a5,d40 <atol+0xd8>
 d34:	fec42783          	lw	a5,-20(s0)
 d38:	40f007b3          	neg	a5,a5
 d3c:	0080006f          	j	d44 <atol+0xdc>
 d40:	fec42783          	lw	a5,-20(s0)
 d44:	00078513          	mv	a0,a5
 d48:	02c12403          	lw	s0,44(sp)
 d4c:	03010113          	addi	sp,sp,48
 d50:	00008067          	ret

00000d54 <end>:
 d54:	00000013          	nop
 d58:	00000013          	nop
 d5c:	00000013          	nop
 d60:	00000013          	nop
 d64:	00000013          	nop
 d68:	00000013          	nop

00000d6c <_last>:
 d6c:	fe9ff06f          	j	d54 <end>

Disassembly of section .text.__eqdf2:

00000d70 <__eqdf2>:
 d70:	0145d713          	srli	a4,a1,0x14
 d74:	001007b7          	lui	a5,0x100
 d78:	fff78793          	addi	a5,a5,-1 # fffff <sense.2917+0xfce8f>
 d7c:	0146d813          	srli	a6,a3,0x14
 d80:	7ff77713          	andi	a4,a4,2047
 d84:	7ff00893          	li	a7,2047
 d88:	00b7fe33          	and	t3,a5,a1
 d8c:	00050e93          	mv	t4,a0
 d90:	00d7f7b3          	and	a5,a5,a3
 d94:	01f5d593          	srli	a1,a1,0x1f
 d98:	00060f13          	mv	t5,a2
 d9c:	7ff87813          	andi	a6,a6,2047
 da0:	01f6d693          	srli	a3,a3,0x1f
 da4:	01170e63          	beq	a4,a7,dc0 <__eqdf2+0x50>
 da8:	00100313          	li	t1,1
 dac:	01180663          	beq	a6,a7,db8 <__eqdf2+0x48>
 db0:	01071463          	bne	a4,a6,db8 <__eqdf2+0x48>
 db4:	02fe0263          	beq	t3,a5,dd8 <__eqdf2+0x68>
 db8:	00030513          	mv	a0,t1
 dbc:	00008067          	ret
 dc0:	00ae68b3          	or	a7,t3,a0
 dc4:	00100313          	li	t1,1
 dc8:	fe0898e3          	bnez	a7,db8 <__eqdf2+0x48>
 dcc:	fee816e3          	bne	a6,a4,db8 <__eqdf2+0x48>
 dd0:	00c7e7b3          	or	a5,a5,a2
 dd4:	fe0792e3          	bnez	a5,db8 <__eqdf2+0x48>
 dd8:	00100313          	li	t1,1
 ddc:	fdee9ee3          	bne	t4,t5,db8 <__eqdf2+0x48>
 de0:	00000313          	li	t1,0
 de4:	fcd58ae3          	beq	a1,a3,db8 <__eqdf2+0x48>
 de8:	00100313          	li	t1,1
 dec:	fc0716e3          	bnez	a4,db8 <__eqdf2+0x48>
 df0:	00ae6533          	or	a0,t3,a0
 df4:	00a03333          	snez	t1,a0
 df8:	fc1ff06f          	j	db8 <__eqdf2+0x48>

Disassembly of section .text.__emutls_get_address:

00000dfc <__emutls_get_address>:
 dfc:	00852783          	lw	a5,8(a0)
 e00:	00078663          	beqz	a5,e0c <__emutls_get_address+0x10>
 e04:	00078513          	mv	a0,a5
 e08:	00008067          	ret
 e0c:	ff010113          	addi	sp,sp,-16
 e10:	00912223          	sw	s1,4(sp)
 e14:	00452483          	lw	s1,4(a0)
 e18:	00812423          	sw	s0,8(sp)
 e1c:	01212023          	sw	s2,0(sp)
 e20:	00112623          	sw	ra,12(sp)
 e24:	00400793          	li	a5,4
 e28:	00050413          	mv	s0,a0
 e2c:	00052903          	lw	s2,0(a0)
 e30:	0097ee63          	bltu	a5,s1,e4c <__emutls_get_address+0x50>
 e34:	00490513          	addi	a0,s2,4
 e38:	a74ff0ef          	jal	ra,ac <malloc>
 e3c:	08050063          	beqz	a0,ebc <__emutls_get_address+0xc0>
 e40:	00a52023          	sw	a0,0(a0)
 e44:	00450793          	addi	a5,a0,4
 e48:	0280006f          	j	e70 <__emutls_get_address+0x74>
 e4c:	00990533          	add	a0,s2,s1
 e50:	00350513          	addi	a0,a0,3
 e54:	a58ff0ef          	jal	ra,ac <malloc>
 e58:	06050263          	beqz	a0,ebc <__emutls_get_address+0xc0>
 e5c:	00348793          	addi	a5,s1,3
 e60:	00f507b3          	add	a5,a0,a5
 e64:	409004b3          	neg	s1,s1
 e68:	0097f7b3          	and	a5,a5,s1
 e6c:	fea7ae23          	sw	a0,-4(a5)
 e70:	00c42583          	lw	a1,12(s0)
 e74:	00090613          	mv	a2,s2
 e78:	02058863          	beqz	a1,ea8 <__emutls_get_address+0xac>
 e7c:	00078513          	mv	a0,a5
 e80:	aadff0ef          	jal	ra,92c <memcpy>
 e84:	00050793          	mv	a5,a0
 e88:	00f42423          	sw	a5,8(s0)
 e8c:	00c12083          	lw	ra,12(sp)
 e90:	00812403          	lw	s0,8(sp)
 e94:	00412483          	lw	s1,4(sp)
 e98:	00012903          	lw	s2,0(sp)
 e9c:	00078513          	mv	a0,a5
 ea0:	01010113          	addi	sp,sp,16
 ea4:	00008067          	ret
 ea8:	00078513          	mv	a0,a5
 eac:	00000593          	li	a1,0
 eb0:	b59ff0ef          	jal	ra,a08 <memset>
 eb4:	00050793          	mv	a5,a0
 eb8:	fd1ff06f          	j	e88 <__emutls_get_address+0x8c>
 ebc:	a10ff0ef          	jal	ra,cc <abort>

Disassembly of section .text.__emutls_register_common:

00000ec0 <__emutls_register_common>:
 ec0:	00052783          	lw	a5,0(a0)
 ec4:	00b7f663          	bgeu	a5,a1,ed0 <__emutls_register_common+0x10>
 ec8:	00b52023          	sw	a1,0(a0)
 ecc:	00052623          	sw	zero,12(a0)
 ed0:	00452783          	lw	a5,4(a0)
 ed4:	00c7f463          	bgeu	a5,a2,edc <__emutls_register_common+0x1c>
 ed8:	00c52223          	sw	a2,4(a0)
 edc:	00068663          	beqz	a3,ee8 <__emutls_register_common+0x28>
 ee0:	00052783          	lw	a5,0(a0)
 ee4:	00b78463          	beq	a5,a1,eec <__emutls_register_common+0x2c>
 ee8:	00008067          	ret
 eec:	00d52623          	sw	a3,12(a0)
 ef0:	00008067          	ret
